target datalayout = "e-m:e-p270:32:32-p271:32:32-p272:64:64-i64:64-i128:128-f80:128-n8:16:32:64-S128"
target triple = "x86_64-unknown-linux-gnu"

; Function Attrs: mustprogress nounwind uwtable
define noundef signext i8 @_ZN6icu_7516DateIntervalInfo13stringNumericEiic(i32 noundef %fieldWidth, i32 noundef %anotherFieldWidth, i8 noundef signext %patternLetter) #0 align 2 {
entry:
  %retval = alloca i8, align 1
  %fieldWidth.addr = alloca i32, align 4
  %anotherFieldWidth.addr = alloca i32, align 4
  %patternLetter.addr = alloca i8, align 1
  store i32 %fieldWidth, ptr %fieldWidth.addr, align 4
  store i32 %anotherFieldWidth, ptr %anotherFieldWidth.addr, align 4
  store i8 %patternLetter, ptr %patternLetter.addr, align 1
  %0 = load i8, ptr %patternLetter.addr, align 1
  %conv = sext i8 %0 to i32
  %cmp = icmp eq i32 %conv, 77
  br i1 %cmp, label %if.then, label %if.end7

if.then:                                          ; preds = %entry
  %1 = load i32, ptr %fieldWidth.addr, align 4
  %cmp1 = icmp sle i32 %1, 2
  br i1 %cmp1, label %land.lhs.true, label %lor.lhs.false

land.lhs.true:                                    ; preds = %if.then
  %2 = load i32, ptr %anotherFieldWidth.addr, align 4
  %cmp2 = icmp sgt i32 %2, 2
  br i1 %cmp2, label %if.then6, label %lor.lhs.false

lor.lhs.false:                                    ; preds = %land.lhs.true, %if.then
  %3 = load i32, ptr %fieldWidth.addr, align 4
  %cmp3 = icmp sgt i32 %3, 2
  br i1 %cmp3, label %land.lhs.true4, label %if.end

land.lhs.true4:                                   ; preds = %lor.lhs.false
  %4 = load i32, ptr %anotherFieldWidth.addr, align 4
  %cmp5 = icmp sle i32 %4, 2
  br i1 %cmp5, label %if.then6, label %if.end

if.then6:                                         ; preds = %land.lhs.true4, %land.lhs.true
  store i8 1, ptr %retval, align 1
  br label %return

if.end:                                           ; preds = %land.lhs.true4, %lor.lhs.false
  br label %if.end7

if.end7:                                          ; preds = %if.end, %entry
  store i8 0, ptr %retval, align 1
  br label %return

return:                                           ; preds = %if.end7, %if.then6
  %5 = load i8, ptr %retval, align 1
  ret i8 %5
}