; Function Attrs: mustprogress nofree norecurse nosync nounwind willreturn memory(none) uwtable
define noundef signext i8 @_ZN6icu_7516DateIntervalInfo13stringNumericEiic(i32 noundef %fieldWidth, i32 noundef %anotherFieldWidth, i8 noundef signext %patternLetter) local_unnamed_addr #6 align 2 {
entry:
  %cmp = icmp eq i8 %patternLetter, 77
  br i1 %cmp, label %if.then, label %if.end7

if.then:                                          ; preds = %entry
  %cmp1 = icmp slt i32 %fieldWidth, 3
  %cmp2 = icmp sgt i32 %anotherFieldWidth, 2
  %or.cond = and i1 %cmp1, %cmp2
  br i1 %or.cond, label %return, label %lor.lhs.false

lor.lhs.false:                                    ; preds = %if.then
  %cmp3 = icmp sgt i32 %fieldWidth, 2
  %cmp5 = icmp slt i32 %anotherFieldWidth, 3
  %or.cond1 = and i1 %cmp3, %cmp5
  br i1 %or.cond1, label %return, label %if.end7

if.end7:                                          ; preds = %lor.lhs.false, %entry
  br label %return

return:                                           ; preds = %if.then, %lor.lhs.false, %if.end7
  %retval.0 = phi i8 [ 0, %if.end7 ], [ 1, %lor.lhs.false ], [ 1, %if.then ]
  ret i8 %retval.0
}